Certificate:
    Data:
        Version: 3 (0x2)
        Serial Number: 901344829 (0x35b96e3d)
        Signature Algorithm: sha256WithRSAEncryption
        Issuer: CN=mosquitto
        Validity
            Not Before: Jan 23 17:26:33 2024 GMT
            Not After : Apr 27 17:26:33 2026 GMT
        Subject: CN=server
        Subject Public Key Info:
            Public Key Algorithm: rsaEncryption
                RSA Public-Key: (2048 bit)
                Modulus:
                    00:98:2a:d2:28:ff:37:8c:54:db:38:88:8c:ba:59:
                    d8:e4:6b:7a:d6:e8:86:82:e6:fd:0d:23:d3:0f:92:
                    8d:91:e5:3f:ef:ae:b9:9e:5c:70:1b:69:68:40:f0:
                    f2:0d:c2:a5:8b:ea:aa:d2:16:5d:ca:88:21:06:4e:
                    56:35:39:67:b5:d8:a7:7b:09:68:78:06:0f:c2:8d:
                    f0:c2:ff:87:b1:56:ac:7a:eb:72:a5:f6:25:1b:01:
                    91:89:f3:a8:50:92:fb:73:43:a9:f5:ac:0c:aa:28:
                    63:7e:91:6a:d9:6b:0a:77:96:da:dd:18:a6:81:da:
                    5b:02:17:07:69:b6:d9:ac:38:2f:5b:c2:1c:14:00:
                    83:64:0e:fe:11:34:a7:35:d1:d3:a4:28:c5:f5:78:
                    ec:b0:d6:38:21:35:f3:5d:42:8f:b8:a6:1b:4e:68:
                    17:cc:f8:cf:2e:36:c0:b3:dc:df:5d:2e:fb:b6:ec:
                    4d:b0:f8:13:f9:37:4a:bd:fc:29:47:f2:e2:99:99:
                    87:46:dd:3a:a0:e2:86:d9:0f:dd:a9:4c:f1:69:0a:
                    a9:24:e0:bd:32:62:fc:4a:e9:34:12:28:ed:35:d7:
                    38:9a:7c:29:6f:ca:d4:cf:ab:75:f4:7f:44:25:13:
                    74:fb:e9:50:84:71:2f:3f:a3:b6:e9:22:d3:8f:fc:
                    b3:f1
                Exponent: 65537 (0x10001)
        X509v3 extensions:
            X509v3 Basic Constraints: 
                CA:FALSE
            X509v3 Subject Key Identifier: 
                35:BF:92:CD:05:4C:DA:6F:25:2C:25:A8:62:40:C1:BB:EB:F6:94:71
            X509v3 Authority Key Identifier: 
                keyid:C4:A2:B8:AD:BA:2C:C2:BC:B9:CE:1A:89:A4:88:9A:FD:A7:12:57:39
                DirName:/CN=mosquitto
                serial:01:89:09:25:EF:62:EC:CC:9D:94:AF:A2:28:A7:DE:82:82:A5:0C:98

            X509v3 Extended Key Usage: 
                TLS Web Server Authentication
            X509v3 Key Usage: 
                Digital Signature, Key Encipherment
            X509v3 Subject Alternative Name: 
                DNS:server
    Signature Algorithm: sha256WithRSAEncryption
         89:91:69:f4:48:64:3e:2c:d8:2e:aa:31:b1:76:eb:37:d7:74:
         e6:7a:5b:7c:27:4c:8a:2e:c0:47:e7:3b:1c:8f:94:2a:84:7c:
         09:ee:e7:eb:71:7d:71:a9:4a:c7:f7:dc:28:ef:e2:7b:4c:53:
         74:ee:89:85:9b:25:fa:ff:0f:47:bb:6e:47:27:2e:c7:15:dc:
         03:b5:2b:68:44:78:76:3d:99:63:78:1d:40:dc:8c:1b:37:e5:
         b6:40:ff:88:81:c6:46:73:5f:c3:62:47:63:0d:dc:7a:51:e0:
         49:e7:ba:17:10:e3:03:0e:ce:de:a4:28:8a:84:8e:01:23:7f:
         c3:29:2d:56:76:ad:45:45:8f:5b:d2:7b:69:cb:81:a4:79:3f:
         fd:91:35:8b:32:27:80:bb:f7:de:1c:3b:ac:ee:0c:fa:c5:46:
         ef:d0:40:56:19:91:e8:d9:44:30:eb:c9:ad:a9:df:a0:70:ac:
         bc:9f:f6:8d:dc:c4:ae:79:ce:bc:fe:24:94:a5:d2:20:0b:a1:
         f3:02:f3:95:73:1f:fd:8f:83:26:89:62:2e:60:8a:e4:65:43:
         a7:d5:c3:54:7d:d1:4b:47:f9:77:65:9e:18:48:58:99:c0:b8:
         59:fa:c0:f6:00:8c:27:c6:2e:26:7a:33:b6:d1:5f:fd:dc:54:
         52:52:33:a8
-----BEGIN CERTIFICATE-----
MIIDVzCCAj+gAwIBAgIENbluPTANBgkqhkiG9w0BAQsFADAUMRIwEAYDVQQDDAlt
b3NxdWl0dG8wHhcNMjQwMTIzMTcyNjMzWhcNMjYwNDI3MTcyNjMzWjARMQ8wDQYD
VQQDDAZzZXJ2ZXIwggEiMA0GCSqGSIb3DQEBAQUAA4IBDwAwggEKAoIBAQCYKtIo
/zeMVNs4iIy6Wdjka3rW6IaC5v0NI9MPko2R5T/vrrmeXHAbaWhA8PINwqWL6qrS
Fl3KiCEGTlY1OWe12Kd7CWh4Bg/CjfDC/4exVqx663Kl9iUbAZGJ86hQkvtzQ6n1
rAyqKGN+kWrZawp3ltrdGKaB2lsCFwdpttmsOC9bwhwUAINkDv4RNKc10dOkKMX1
eOyw1jghNfNdQo+4phtOaBfM+M8uNsCz3N9dLvu27E2w+BP5N0q9/ClH8uKZmYdG
3Tqg4obZD92pTPFpCqkk4L0yYvxK6TQSKO011ziafClvytTPq3X0f0QlE3T76VCE
cS8/o7bpItOP/LPxAgMBAAGjgbMwgbAwCQYDVR0TBAIwADAdBgNVHQ4EFgQUNb+S
zQVM2m8lLCWoYkDBu+v2lHEwTwYDVR0jBEgwRoAUxKK4rboswry5zhqJpIia/acS
VzmhGKQWMBQxEjAQBgNVBAMMCW1vc3F1aXR0b4IUAYkJJe9i7MydlK+iKKfegoKl
DJgwEwYDVR0lBAwwCgYIKwYBBQUHAwEwCwYDVR0PBAQDAgWgMBEGA1UdEQQKMAiC
BnNlcnZlcjANBgkqhkiG9w0BAQsFAAOCAQEAiZFp9EhkPizYLqoxsXbrN9d05npb
fCdMii7AR+c7HI+UKoR8Ce7n63F9calKx/fcKO/ie0xTdO6JhZsl+v8PR7tuRycu
xxXcA7UraER4dj2ZY3gdQNyMGzfltkD/iIHGRnNfw2JHYw3celHgSee6FxDjAw7O
3qQoioSOASN/wyktVnatRUWPW9J7acuBpHk//ZE1izIngLv33hw7rO4M+sVG79BA
VhmR6NlEMOvJranfoHCsvJ/2jdzErnnOvP4klKXSIAuh8wLzlXMf/Y+DJoliLmCK
5GVDp9XDVH3RS0f5d2WeGEhYmcC4WfrA9gCMJ8YuJnozttFf/dxUUlIzqA==
-----END CERTIFICATE-----
